; Function Attrs: mustprogress nofree norecurse nosync nounwind willreturn memory(read, inaccessiblemem: none) uwtable
define range(i32 0, 2) i32 @Abc_NodeIsMuxType(ptr noundef readonly captures(none) %0) local_unnamed_addr #4 {
  %2 = getelementptr i8, ptr %0, i64 28
  %.val = load i32, ptr %2, align 4
  %.not = icmp eq i32 %.val, 2
  br i1 %.not, label %3, label %56

3:                                                ; preds = %1
  %4 = getelementptr i8, ptr %0, i64 20
  %.val32 = load i32, ptr %4, align 4
  %5 = and i32 %.val32, 3072
  %or.cond.not = icmp eq i32 %5, 3072
  br i1 %or.cond.not, label %6, label %56

6:                                                ; preds = %3
  %.val42 = load ptr, ptr %0, align 8
  %7 = getelementptr i8, ptr %0, i64 32
  %.val43 = load ptr, ptr %7, align 8
  %8 = getelementptr i8, ptr %.val42, i64 32
  %.val42.val = load ptr, ptr %8, align 8
  %.val43.val = load i32, ptr %.val43, align 4
  %9 = getelementptr i8, ptr %.val42.val, i64 8
  %.val42.val.val = load ptr, ptr %9, align 8
  %10 = sext i32 %.val43.val to i64
  %11 = getelementptr inbounds ptr, ptr %.val42.val.val, i64 %10
  %12 = load ptr, ptr %11, align 8
  %13 = getelementptr i8, ptr %.val43, i64 4
  %.val45.val = load i32, ptr %13, align 4
  %14 = sext i32 %.val45.val to i64
  %15 = getelementptr inbounds ptr, ptr %.val42.val.val, i64 %14
  %16 = load ptr, ptr %15, align 8
  %17 = getelementptr i8, ptr %12, i64 28
  %.val30 = load i32, ptr %17, align 4
  %.not54 = icmp eq i32 %.val30, 2
  br i1 %.not54, label %18, label %56

18:                                               ; preds = %6
  %19 = getelementptr i8, ptr %16, i64 28
  %.val31 = load i32, ptr %19, align 4
  %.not55 = icmp eq i32 %.val31, 2
  br i1 %.not55, label %20, label %56

20:                                               ; preds = %18
  %21 = getelementptr i8, ptr %12, i64 32
  %.val46 = load ptr, ptr %21, align 8
  %.val46.val = load i32, ptr %.val46, align 4
  %22 = getelementptr i8, ptr %16, i64 32
  %.val47 = load ptr, ptr %22, align 8
  %.val47.val = load i32, ptr %.val47, align 4
  %23 = icmp eq i32 %.val46.val, %.val47.val
  br i1 %23, label %24, label %29

24:                                               ; preds = %20
  %25 = getelementptr i8, ptr %12, i64 20
  %.val33 = load i32, ptr %25, align 4
  %26 = getelementptr i8, ptr %16, i64 20
  %.val34 = load i32, ptr %26, align 4
  %27 = xor i32 %.val34, %.val33
  %28 = and i32 %27, 1024
  %.not27 = icmp eq i32 %28, 0
  br i1 %.not27, label %29, label %56

29:                                               ; preds = %24, %20
  %30 = getelementptr i8, ptr %.val47, i64 4
  %.val50.val = load i32, ptr %30, align 4
  %31 = icmp eq i32 %.val46.val, %.val50.val
  br i1 %31, label %32, label %39

32:                                               ; preds = %29
  %33 = getelementptr i8, ptr %12, i64 20
  %.val35 = load i32, ptr %33, align 4
  %34 = lshr i32 %.val35, 10
  %35 = getelementptr i8, ptr %16, i64 20
  %.val38 = load i32, ptr %35, align 4
  %36 = lshr i32 %.val38, 11
  %37 = xor i32 %36, %34
  %38 = and i32 %37, 1
  %.not28 = icmp eq i32 %38, 0
  br i1 %.not28, label %39, label %56

39:                                               ; preds = %32, %29
  %40 = getelementptr i8, ptr %.val46, i64 4
  %.val51.val = load i32, ptr %40, align 4
  %41 = icmp eq i32 %.val51.val, %.val47.val
  br i1 %41, label %42, label %49

42:                                               ; preds = %39
  %43 = getelementptr i8, ptr %12, i64 20
  %.val39 = load i32, ptr %43, align 4
  %44 = lshr i32 %.val39, 11
  %45 = getelementptr i8, ptr %16, i64 20
  %.val36 = load i32, ptr %45, align 4
  %46 = lshr i32 %.val36, 10
  %47 = xor i32 %46, %44
  %48 = and i32 %47, 1
  %.not29 = icmp eq i32 %48, 0
  br i1 %.not29, label %49, label %56

49:                                               ; preds = %42, %39
  %50 = icmp eq i32 %.val51.val, %.val50.val
  br i1 %50, label %51, label %56

51:                                               ; preds = %49
  %52 = getelementptr i8, ptr %12, i64 20
  %.val40 = load i32, ptr %52, align 4
  %53 = getelementptr i8, ptr %16, i64 20
  %.val41 = load i32, ptr %53, align 4
  %54 = xor i32 %.val41, %.val40
  %55 = lshr i32 %54, 11
  %.lobit = and i32 %55, 1
  br label %56

56:                                               ; preds = %24, %32, %42, %51, %49, %6, %18, %3, %1
  %.0 = phi i32 [ 0, %1 ], [ 0, %3 ], [ 0, %18 ], [ 0, %6 ], [ 1, %42 ], [ 1, %32 ], [ 1, %24 ], [ 0, %49 ], [ %.lobit, %51 ]
  ret i32 %.0
}